target datalayout = "e-m:e-p270:32:32-p271:32:32-p272:64:64-i64:64-i128:128-f80:128-n8:16:32:64-S128"
target triple = "x86_64-pc-linux-gnu"

%struct.slurm_conf_t = type { i64, ptr, i16, ptr, ptr, ptr, ptr, ptr, i16, ptr, ptr, ptr, ptr, ptr, ptr, ptr, i16, ptr, ptr, ptr, ptr, i16, ptr, ptr, ptr, i64, ptr, ptr, ptr, ptr, i16, ptr, ptr, i16, i32, ptr, i32, ptr, i32, i32, ptr, ptr, i64, i64, ptr, i16, i16, ptr, i32, i32, ptr, i32, ptr, i32, i16, i16, i16, ptr, i16, i16, ptr, ptr, i32, i16, i16, ptr, i32, i16, ptr, ptr, ptr, ptr, i16, ptr, ptr, ptr, ptr, i32, ptr, ptr, ptr, ptr, i16, i16, ptr, i32, i32, i32, i16, i16, ptr, ptr, i16, ptr, ptr, i32, i32, i32, i32, i32, i64, i32, i32, i16, ptr, ptr, i32, ptr, ptr, ptr, i16, i32, ptr, ptr, i16, ptr, ptr, i32, i16, ptr, ptr, ptr, ptr, i32, i32, i16, i16, i32, ptr, i16, ptr, i32, i32, i32, i32, i32, i32, ptr, i16, ptr, ptr, i32, i16, ptr, i32, i16, i16, ptr, ptr, ptr, i16, ptr, ptr, ptr, ptr, i16, i16, ptr, i16, ptr, i16, ptr, i16, ptr, i16, ptr, ptr, ptr, ptr, i16, ptr, ptr, ptr, i32, ptr, i32, ptr, ptr, i16, ptr, ptr, i32, i16, ptr, ptr, i16, i16, ptr, i16, ptr, ptr, ptr, i32, ptr, i16, i16, ptr, ptr, ptr, ptr, ptr, ptr, ptr, ptr, i16, i32, i16, ptr, ptr, ptr, ptr, i32, ptr, ptr, ptr, i16, ptr, ptr, ptr, i16, ptr, i16, ptr, i16, i16, ptr }
%struct.handle_dev_args = type { i32, i32, ptr }
%struct.cgroup_limits_t = type { ptr, i32, ptr, ptr, i64, i64, i8, %struct.gres_device_id_t, i64, i64, i64, i64 }
%struct.gres_device_id_t = type { i32, i32, i32 }
%struct.gres_device_t = type { i32, i32, %struct.gres_device_id_t, i32, ptr, ptr }

@slurm_conf = external global %struct.slurm_conf_t, align 8
@.str.2 = private unnamed_addr constant [8 x i8] c"task_%d\00", align 1
@.str.3 = private unnamed_addr constant [4 x i8] c"job\00", align 1
@.str.4 = private unnamed_addr constant [5 x i8] c"step\00", align 1
@.str.5 = private unnamed_addr constant [8 x i8] c"unknown\00", align 1
@.str.6 = private unnamed_addr constant [35 x i8] c"%s: %s: GRES: %s %s: adding %s(%s)\00", align 1
@plugin_type = external constant [0 x i8], align 1
@__func__._handle_device_access = private unnamed_addr constant [22 x i8] c"_handle_device_access\00", align 1
@.str.7 = private unnamed_addr constant [14 x i8] c"devices.allow\00", align 1
@.str.8 = private unnamed_addr constant [13 x i8] c"devices.deny\00", align 1
@.str.9 = private unnamed_addr constant [50 x i8] c"Unable to set access constraint for device %s(%s)\00", align 1

; Function Attrs: nounwind uwtable
define internal i32 @_handle_device_access(ptr noundef %0, ptr noundef %1) #0 {
  %3 = alloca ptr, align 8
  %4 = alloca ptr, align 8
  %5 = alloca ptr, align 8
  %6 = alloca ptr, align 8
  %7 = alloca %struct.cgroup_limits_t, align 8
  %8 = alloca ptr, align 8
  %9 = alloca i32, align 4
  %10 = alloca ptr, align 8
  store ptr %0, ptr %3, align 8
  store ptr %1, ptr %4, align 8
  call void @llvm.lifetime.start.p0(i64 8, ptr %5) #5
  %11 = load ptr, ptr %3, align 8
  store ptr %11, ptr %5, align 8
  call void @llvm.lifetime.start.p0(i64 8, ptr %6) #5
  %12 = load ptr, ptr %4, align 8
  store ptr %12, ptr %6, align 8
  call void @llvm.lifetime.start.p0(i64 96, ptr %7) #5
  call void @llvm.lifetime.start.p0(i64 8, ptr %8) #5
  call void @llvm.lifetime.start.p0(i64 4, ptr %9) #5
  store i32 0, ptr %9, align 4
  %13 = load ptr, ptr %5, align 8
  %14 = getelementptr inbounds nuw %struct.gres_device_t, ptr %13, i32 0, i32 2
  %15 = call ptr @gres_device_id2str(ptr noundef %14)
  store ptr %15, ptr %8, align 8
  %16 = load i64, ptr getelementptr inbounds nuw (%struct.slurm_conf_t, ptr @slurm_conf, i32 0, i32 42), align 8
  %17 = and i64 %16, 64
  %18 = icmp ne i64 %17, 0
  br i1 %18, label %19, label %60

19:                                               ; preds = %2
  call void @llvm.lifetime.start.p0(i64 8, ptr %10) #5
  store ptr null, ptr %10, align 8
  %20 = load ptr, ptr %6, align 8
  %21 = getelementptr inbounds nuw %struct.handle_dev_args, ptr %20, i32 0, i32 0
  %22 = load i32, ptr %21, align 8
  switch i32 %22, label %32 [
    i32 7, label %23
    i32 3, label %28
    i32 4, label %30
  ]

23:                                               ; preds = %19
  %24 = load ptr, ptr %6, align 8
  %25 = getelementptr inbounds nuw %struct.handle_dev_args, ptr %24, i32 0, i32 1
  %26 = load i32, ptr %25, align 4
  %27 = call ptr (ptr, ...) @xstrdup_printf(ptr noundef @.str.2, i32 noundef %26)
  store ptr %27, ptr %10, align 8
  br label %34

28:                                               ; preds = %19
  %29 = call ptr @xstrdup(ptr noundef @.str.3)
  store ptr %29, ptr %10, align 8
  br label %34

30:                                               ; preds = %19
  %31 = call ptr @xstrdup(ptr noundef @.str.4)
  store ptr %31, ptr %10, align 8
  br label %34

32:                                               ; preds = %19
  %33 = call ptr @xstrdup(ptr noundef @.str.5)
  store ptr %33, ptr %10, align 8
  br label %34

34:                                               ; preds = %32, %30, %28, %23
  br label %35

35:                                               ; preds = %34
  %36 = load i64, ptr getelementptr inbounds nuw (%struct.slurm_conf_t, ptr @slurm_conf, i32 0, i32 42), align 8
  %37 = and i64 %36, 64
  %38 = icmp ne i64 %37, 0
  br i1 %38, label %39, label %57

39:                                               ; preds = %35
  br label %40

40:                                               ; preds = %39
  %41 = call i32 @get_log_level()
  %42 = icmp sge i32 %41, 4
  br i1 %42, label %43, label %54

43:                                               ; preds = %40
  %44 = load ptr, ptr %10, align 8
  %45 = load ptr, ptr %5, align 8
  %46 = getelementptr inbounds nuw %struct.gres_device_t, ptr %45, i32 0, i32 1
  %47 = load i32, ptr %46, align 4
  %48 = icmp ne i32 %47, 0
  %49 = select i1 %48, ptr @.str.7, ptr @.str.8
  %50 = load ptr, ptr %8, align 8
  %51 = load ptr, ptr %5, align 8
  %52 = getelementptr inbounds nuw %struct.gres_device_t, ptr %51, i32 0, i32 4
  %53 = load ptr, ptr %52, align 8
  call void (i32, ptr, ...) @log_var(i32 noundef 4, ptr noundef @.str.6, ptr noundef @plugin_type, ptr noundef @__func__._handle_device_access, ptr noundef %44, ptr noundef %49, ptr noundef %50, ptr noundef %53)
  br label %54

54:                                               ; preds = %43, %40
  br label %55

55:                                               ; preds = %54
  br label %56

56:                                               ; preds = %55
  br label %57

57:                                               ; preds = %56, %35
  br label %58

58:                                               ; preds = %57
  br label %59

59:                                               ; preds = %58
  call void @slurm_xfree(ptr noundef %10)
  call void @llvm.lifetime.end.p0(i64 8, ptr %10) #5
  br label %60

60:                                               ; preds = %59, %2
  call void @cgroup_init_limits(ptr noundef %7)
  %61 = load ptr, ptr %5, align 8
  %62 = getelementptr inbounds nuw %struct.gres_device_t, ptr %61, i32 0, i32 1
  %63 = load i32, ptr %62, align 4
  %64 = icmp ne i32 %63, 0
  %65 = getelementptr inbounds nuw %struct.cgroup_limits_t, ptr %7, i32 0, i32 6
  %66 = zext i1 %64 to i8
  store i8 %66, ptr %65, align 8
  %67 = getelementptr inbounds nuw %struct.cgroup_limits_t, ptr %7, i32 0, i32 7
  %68 = load ptr, ptr %5, align 8
  %69 = getelementptr inbounds nuw %struct.gres_device_t, ptr %68, i32 0, i32 2
  call void @llvm.memcpy.p0.p0.i64(ptr align 4 %67, ptr align 8 %69, i64 12, i1 false)
  %70 = load ptr, ptr %6, align 8
  %71 = getelementptr inbounds nuw %struct.handle_dev_args, ptr %70, i32 0, i32 1
  %72 = load i32, ptr %71, align 4
  %73 = getelementptr inbounds nuw %struct.cgroup_limits_t, ptr %7, i32 0, i32 1
  store i32 %72, ptr %73, align 8
  %74 = load ptr, ptr %6, align 8
  %75 = getelementptr inbounds nuw %struct.handle_dev_args, ptr %74, i32 0, i32 0
  %76 = load i32, ptr %75, align 8
  %77 = call i32 @cgroup_g_constrain_set(i32 noundef 3, i32 noundef %76, ptr noundef %7)
  %78 = icmp ne i32 %77, 0
  br i1 %78, label %79, label %85

79:                                               ; preds = %60
  %80 = load ptr, ptr %8, align 8
  %81 = load ptr, ptr %5, align 8
  %82 = getelementptr inbounds nuw %struct.gres_device_t, ptr %81, i32 0, i32 4
  %83 = load ptr, ptr %82, align 8
  %84 = call i32 (ptr, ...) @error(ptr noundef @.str.9, ptr noundef %80, ptr noundef %83)
  store i32 -1, ptr %9, align 4
  br label %85

85:                                               ; preds = %79, %60
  call void @slurm_xfree(ptr noundef %8)
  %86 = load i32, ptr %9, align 4
  call void @llvm.lifetime.end.p0(i64 4, ptr %9) #5
  call void @llvm.lifetime.end.p0(i64 8, ptr %8) #5
  call void @llvm.lifetime.end.p0(i64 96, ptr %7) #5
  call void @llvm.lifetime.end.p0(i64 8, ptr %6) #5
  call void @llvm.lifetime.end.p0(i64 8, ptr %5) #5
  ret i32 %86
}