; Function Attrs: nounwind uwtable
define internal range(i32 -1, 1) i32 @_handle_device_access(ptr noundef %0, ptr noundef readonly captures(none) %1) #0 {
  %3 = alloca %struct.cgroup_limits_t, align 8
  %4 = alloca ptr, align 8
  %5 = alloca ptr, align 8
  call void @llvm.lifetime.start.p0(i64 96, ptr nonnull %3) #5
  call void @llvm.lifetime.start.p0(i64 8, ptr nonnull %4) #5
  %6 = getelementptr inbounds nuw i8, ptr %0, i64 8
  %7 = tail call ptr @gres_device_id2str(ptr noundef nonnull %6) #5
  store ptr %7, ptr %4, align 8
  %8 = load i64, ptr getelementptr inbounds nuw (i8, ptr @slurm_conf, i64 320), align 8
  %9 = and i64 %8, 64
  %.not = icmp eq i64 %9, 0
  br i1 %.not, label %35, label %10

10:                                               ; preds = %2
  call void @llvm.lifetime.start.p0(i64 8, ptr nonnull %5) #5
  %11 = load i32, ptr %1, align 8
  switch i32 %11, label %20 [
    i32 7, label %12
    i32 3, label %16
    i32 4, label %18
  ]

12:                                               ; preds = %10
  %13 = getelementptr inbounds nuw i8, ptr %1, i64 4
  %14 = load i32, ptr %13, align 4
  %15 = tail call ptr (ptr, ...) @xstrdup_printf(ptr noundef nonnull @.str.2, i32 noundef %14) #5
  br label %22

16:                                               ; preds = %10
  %17 = tail call ptr @xstrdup(ptr noundef nonnull @.str.3) #5
  br label %22

18:                                               ; preds = %10
  %19 = tail call ptr @xstrdup(ptr noundef nonnull @.str.4) #5
  br label %22

20:                                               ; preds = %10
  %21 = tail call ptr @xstrdup(ptr noundef nonnull @.str.5) #5
  br label %22

22:                                               ; preds = %12, %16, %18, %20
  %.sink = phi ptr [ %15, %12 ], [ %17, %16 ], [ %19, %18 ], [ %21, %20 ]
  store ptr %.sink, ptr %5, align 8
  %23 = load i64, ptr getelementptr inbounds nuw (i8, ptr @slurm_conf, i64 320), align 8
  %24 = and i64 %23, 64
  %.not12 = icmp eq i64 %24, 0
  br i1 %.not12, label %34, label %25

25:                                               ; preds = %22
  %26 = tail call i32 @get_log_level() #5
  %27 = icmp sgt i32 %26, 3
  br i1 %27, label %28, label %34

28:                                               ; preds = %25
  %29 = getelementptr inbounds nuw i8, ptr %0, i64 4
  %30 = load i32, ptr %29, align 4
  %.not13 = icmp eq i32 %30, 0
  %31 = select i1 %.not13, ptr @.str.8, ptr @.str.7
  %32 = getelementptr inbounds nuw i8, ptr %0, i64 24
  %33 = load ptr, ptr %32, align 8
  tail call void (i32, ptr, ...) @log_var(i32 noundef 4, ptr noundef nonnull @.str.6, ptr noundef nonnull @plugin_type, ptr noundef nonnull @__func__._handle_device_access, ptr noundef %.sink, ptr noundef nonnull %31, ptr noundef %7, ptr noundef %33) #5
  br label %34

34:                                               ; preds = %25, %28, %22
  call void @slurm_xfree(ptr noundef nonnull %5) #5
  call void @llvm.lifetime.end.p0(i64 8, ptr nonnull %5) #5
  br label %35

35:                                               ; preds = %34, %2
  call void @cgroup_init_limits(ptr noundef nonnull %3) #5
  %36 = getelementptr inbounds nuw i8, ptr %0, i64 4
  %37 = load i32, ptr %36, align 4
  %38 = icmp ne i32 %37, 0
  %39 = getelementptr inbounds nuw i8, ptr %3, i64 48
  %40 = zext i1 %38 to i8
  store i8 %40, ptr %39, align 8
  %41 = getelementptr inbounds nuw i8, ptr %3, i64 52
  call void @llvm.memcpy.p0.p0.i64(ptr noundef nonnull align 4 dereferenceable(12) %41, ptr noundef nonnull align 8 dereferenceable(12) %6, i64 12, i1 false)
  %42 = getelementptr inbounds nuw i8, ptr %1, i64 4
  %43 = load i32, ptr %42, align 4
  %44 = getelementptr inbounds nuw i8, ptr %3, i64 8
  store i32 %43, ptr %44, align 8
  %45 = load i32, ptr %1, align 8
  %46 = call i32 @cgroup_g_constrain_set(i32 noundef 3, i32 noundef %45, ptr noundef nonnull %3) #5
  %.not14 = icmp eq i32 %46, 0
  br i1 %.not14, label %51, label %47

47:                                               ; preds = %35
  %48 = getelementptr inbounds nuw i8, ptr %0, i64 24
  %49 = load ptr, ptr %48, align 8
  %50 = call i32 (ptr, ...) @error(ptr noundef nonnull @.str.9, ptr noundef %7, ptr noundef %49) #5
  br label %51

51:                                               ; preds = %47, %35
  %.0 = phi i32 [ -1, %47 ], [ 0, %35 ]
  call void @slurm_xfree(ptr noundef nonnull %4) #5
  call void @llvm.lifetime.end.p0(i64 8, ptr nonnull %4) #5
  call void @llvm.lifetime.end.p0(i64 96, ptr nonnull %3) #5
  ret i32 %.0
}